target datalayout = "e-m:e-p270:32:32-p271:32:32-p272:64:64-i64:64-i128:128-f80:128-n8:16:32:64-S128"
target triple = "x86_64-pc-linux-gnu"

%struct._object = type { %union.anon, ptr }
%union.anon = type { i64 }
%struct.fileio = type { %struct._object, i32, i8, i8, ptr, ptr, ptr }

@.str.19 = private unnamed_addr constant [5 x i8] c"seek\00", align 1
@PyExc_ValueError = external global ptr, align 8
@.str.35 = private unnamed_addr constant [29 x i8] c"I/O operation on closed file\00", align 1

; Function Attrs: nounwind uwtable
define internal ptr @err_closed() #0 {
  %1 = load ptr, ptr @PyExc_ValueError, align 8, !tbaa !4
  call void @PyErr_SetString(ptr noundef %1, ptr noundef @.str.35)
  ret ptr null
}

; Function Attrs: nounwind uwtable
define internal ptr @_io_FileIO_seek_impl(ptr noundef %0, ptr noundef %1, i32 noundef %2) #0 {
  %4 = alloca ptr, align 8
  %5 = alloca ptr, align 8
  %6 = alloca ptr, align 8
  %7 = alloca i32, align 4
  store ptr %0, ptr %5, align 8, !tbaa !15
  store ptr %1, ptr %6, align 8, !tbaa !4
  store i32 %2, ptr %7, align 4, !tbaa !31
  %8 = load ptr, ptr %5, align 8, !tbaa !15
  %9 = getelementptr inbounds nuw %struct.fileio, ptr %8, i32 0, i32 1
  %10 = load i32, ptr %9, align 8, !tbaa !9
  %11 = icmp slt i32 %10, 0
  br i1 %11, label %12, label %14

12:                                               ; preds = %3
  %13 = call ptr @err_closed()
  store ptr %13, ptr %4, align 8
  br label %19

14:                                               ; preds = %3
  %15 = load ptr, ptr %5, align 8, !tbaa !15
  %16 = load ptr, ptr %6, align 8, !tbaa !4
  %17 = load i32, ptr %7, align 4, !tbaa !31
  %18 = call ptr @portable_lseek(ptr noundef %15, ptr noundef %16, i32 noundef %17, i1 noundef zeroext false)
  store ptr %18, ptr %4, align 8
  br label %19

19:                                               ; preds = %14, %12
  %20 = load ptr, ptr %4, align 8
  ret ptr %20
}

; Function Attrs: nounwind uwtable
define internal ptr @_io_FileIO_seek(ptr noundef %0, ptr noundef %1, i64 noundef %2) #0 {
  %4 = alloca ptr, align 8
  %5 = alloca ptr, align 8
  %6 = alloca i64, align 8
  %7 = alloca ptr, align 8
  %8 = alloca ptr, align 8
  %9 = alloca i32, align 4
  store ptr %0, ptr %4, align 8, !tbaa !4
  store ptr %1, ptr %5, align 8, !tbaa !33
  store i64 %2, ptr %6, align 8, !tbaa !35
  call void @llvm.lifetime.start.p0(i64 8, ptr %7) #9
  store ptr null, ptr %7, align 8, !tbaa !4
  call void @llvm.lifetime.start.p0(i64 8, ptr %8) #9
  call void @llvm.lifetime.start.p0(i64 4, ptr %9) #9
  store i32 0, ptr %9, align 4, !tbaa !31
  %10 = load i64, ptr %6, align 8, !tbaa !35
  %11 = icmp sle i64 1, %10
  br i1 %11, label %12, label %15

12:                                               ; preds = %3
  %13 = load i64, ptr %6, align 8, !tbaa !35
  %14 = icmp sle i64 %13, 2
  br i1 %14, label %20, label %15

15:                                               ; preds = %12, %3
  %16 = load i64, ptr %6, align 8, !tbaa !35
  %17 = call i32 @_PyArg_CheckPositional(ptr noundef @.str.19, i64 noundef %16, i64 noundef 1, i64 noundef 2)
  %18 = icmp ne i32 %17, 0
  br i1 %18, label %20, label %19

19:                                               ; preds = %15
  br label %44

20:                                               ; preds = %15, %12
  %21 = load ptr, ptr %5, align 8, !tbaa !33
  %22 = getelementptr ptr, ptr %21, i64 0
  %23 = load ptr, ptr %22, align 8, !tbaa !4
  store ptr %23, ptr %8, align 8, !tbaa !4
  %24 = load i64, ptr %6, align 8, !tbaa !35
  %25 = icmp slt i64 %24, 2
  br i1 %25, label %26, label %27

26:                                               ; preds = %20
  br label %39

27:                                               ; preds = %20
  %28 = load ptr, ptr %5, align 8, !tbaa !33
  %29 = getelementptr ptr, ptr %28, i64 1
  %30 = load ptr, ptr %29, align 8, !tbaa !4
  %31 = call i32 @PyLong_AsInt(ptr noundef %30)
  store i32 %31, ptr %9, align 4, !tbaa !31
  %32 = load i32, ptr %9, align 4, !tbaa !31
  %33 = icmp eq i32 %32, -1
  br i1 %33, label %34, label %38

34:                                               ; preds = %27
  %35 = call ptr @PyErr_Occurred()
  %36 = icmp ne ptr %35, null
  br i1 %36, label %37, label %38

37:                                               ; preds = %34
  br label %44

38:                                               ; preds = %34, %27
  br label %39

39:                                               ; preds = %38, %26
  %40 = load ptr, ptr %4, align 8, !tbaa !4
  %41 = load ptr, ptr %8, align 8, !tbaa !4
  %42 = load i32, ptr %9, align 4, !tbaa !31
  %43 = call ptr @_io_FileIO_seek_impl(ptr noundef %40, ptr noundef %41, i32 noundef %42)
  store ptr %43, ptr %7, align 8, !tbaa !4
  br label %44

44:                                               ; preds = %39, %37, %19
  %45 = load ptr, ptr %7, align 8, !tbaa !4
  call void @llvm.lifetime.end.p0(i64 4, ptr %9) #9
  call void @llvm.lifetime.end.p0(i64 8, ptr %8) #9
  call void @llvm.lifetime.end.p0(i64 8, ptr %7) #9
  ret ptr %45
}