; Function Attrs: nounwind uwtable
define internal ptr @_io_FileIO_seek(ptr noundef captures(none) %0, ptr noundef readonly captures(none) %1, i64 noundef %2) #1 {
  %4 = add i64 %2, -1
  %or.cond = icmp ult i64 %4, 2
  br i1 %or.cond, label %7, label %5

5:                                                ; preds = %3
  %6 = tail call i32 @_PyArg_CheckPositional(ptr noundef nonnull @.str.19, i64 noundef %2, i64 noundef 1, i64 noundef 2) #10
  %.not = icmp eq i32 %6, 0
  br i1 %.not, label %_io_FileIO_seek_impl.exit, label %7

7:                                                ; preds = %3, %5
  %8 = load ptr, ptr %1, align 8, !tbaa !21
  %9 = icmp slt i64 %2, 2
  br i1 %9, label %17, label %10

10:                                               ; preds = %7
  %11 = getelementptr i8, ptr %1, i64 8
  %12 = load ptr, ptr %11, align 8, !tbaa !21
  %13 = tail call i32 @PyLong_AsInt(ptr noundef %12) #10
  %14 = icmp eq i32 %13, -1
  br i1 %14, label %15, label %17

15:                                               ; preds = %10
  %16 = tail call ptr @PyErr_Occurred() #10
  %.not13 = icmp eq ptr %16, null
  br i1 %.not13, label %17, label %_io_FileIO_seek_impl.exit

17:                                               ; preds = %10, %15, %7
  %.0 = phi i32 [ 0, %7 ], [ -1, %15 ], [ %13, %10 ]
  %18 = getelementptr inbounds nuw i8, ptr %0, i64 16
  %19 = load i32, ptr %18, align 8, !tbaa !4
  %20 = icmp slt i32 %19, 0
  br i1 %20, label %21, label %23

21:                                               ; preds = %17
  %22 = load ptr, ptr @PyExc_ValueError, align 8, !tbaa !21
  tail call void @PyErr_SetString(ptr noundef %22, ptr noundef nonnull @.str.35) #10
  br label %_io_FileIO_seek_impl.exit

23:                                               ; preds = %17
  %24 = tail call fastcc ptr @portable_lseek(ptr noundef nonnull %0, ptr noundef %8, i32 noundef %.0, i1 noundef zeroext false)
  br label %_io_FileIO_seek_impl.exit

_io_FileIO_seek_impl.exit:                        ; preds = %23, %21, %15, %5
  %.011 = phi ptr [ null, %15 ], [ null, %5 ], [ null, %21 ], [ %24, %23 ]
  ret ptr %.011
}